; Function Attrs: nounwind uwtable
define ptr @l_Lean_Elab_HeaderSyntax_imports___lambda__1(ptr noundef %0, ptr readnone captures(none) %1, ptr noundef %2) local_unnamed_addr #0 {
  %4 = tail call ptr @l_Lean_Syntax_getArg(ptr noundef %0, ptr noundef nonnull inttoptr (i64 5 to ptr)) #5
  %5 = tail call ptr @l_Lean_Syntax_getArgs(ptr noundef %4) #5
  %6 = ptrtoint ptr %4 to i64
  %7 = and i64 %6, 1
  %.not = icmp eq i64 %7, 0
  br i1 %.not, label %8, label %lean_dec.exit20

8:                                                ; preds = %3
  %9 = load i32, ptr %4, align 4, !tbaa !8
  %10 = icmp sgt i32 %9, 1
  br i1 %10, label %11, label %13, !prof !11

11:                                               ; preds = %8
  %12 = add nsw i32 %9, -1
  store i32 %12, ptr %4, align 4, !tbaa !8
  br label %lean_dec.exit20

13:                                               ; preds = %8
  %.not.i = icmp eq i32 %9, 0
  br i1 %.not.i, label %lean_dec.exit20, label %14

14:                                               ; preds = %13
  tail call void @lean_dec_ref_cold(ptr noundef nonnull %4) #5
  br label %lean_dec.exit20

lean_dec.exit20:                                  ; preds = %14, %13, %11, %3
  %15 = getelementptr i8, ptr %5, i64 8
  %.val = load i64, ptr %15, align 8, !tbaa !12
  %16 = load ptr, ptr @l_Lean_Elab_HeaderSyntax_imports___lambda__1___closed__2, align 8, !tbaa !4
  %17 = tail call ptr @l_Array_mapMUnsafe_map___at_Lean_Elab_HeaderSyntax_imports___spec__3(ptr noundef %16, ptr nonnull poison, i64 noundef %.val, i64 noundef 0, ptr noundef %5)
  %18 = ptrtoint ptr %2 to i64
  %19 = and i64 %18, 1
  %.not.i25 = icmp eq i64 %19, 0
  br i1 %.not.i25, label %23, label %20

20:                                               ; preds = %lean_dec.exit20
  %21 = lshr i64 %18, 1
  %22 = trunc i64 %21 to i32
  br label %lean_obj_tag.exit

23:                                               ; preds = %lean_dec.exit20
  %24 = getelementptr i8, ptr %2, i64 4
  %.val.i = load i32, ptr %24, align 4
  %25 = lshr i32 %.val.i, 24
  br label %lean_obj_tag.exit

lean_obj_tag.exit:                                ; preds = %20, %23
  %.0.i = phi i32 [ %22, %20 ], [ %25, %23 ]
  %26 = icmp eq i32 %.0.i, 0
  %27 = ptrtoint ptr %17 to i64
  %28 = and i64 %27, 1
  %.not27 = icmp eq i64 %28, 0
  br i1 %26, label %29, label %39

29:                                               ; preds = %lean_obj_tag.exit
  %30 = load ptr, ptr @l_Lean_Elab_HeaderSyntax_imports___lambda__1___closed__7, align 8, !tbaa !4
  %31 = tail call ptr @l_Array_append___rarg(ptr noundef %30, ptr noundef %17) #5
  br i1 %.not27, label %32, label %lean_dec.exit19

32:                                               ; preds = %29
  %33 = load i32, ptr %17, align 4, !tbaa !8
  %34 = icmp sgt i32 %33, 1
  br i1 %34, label %35, label %37, !prof !11

35:                                               ; preds = %32
  %36 = add nsw i32 %33, -1
  store i32 %36, ptr %17, align 4, !tbaa !8
  br label %lean_dec.exit19

37:                                               ; preds = %32
  %.not.i21 = icmp eq i32 %33, 0
  br i1 %.not.i21, label %lean_dec.exit19, label %38

38:                                               ; preds = %37
  tail call void @lean_dec_ref_cold(ptr noundef nonnull %17) #5
  br label %lean_dec.exit19

39:                                               ; preds = %lean_obj_tag.exit
  %40 = load ptr, ptr @l_Lean_Elab_HeaderSyntax_imports___lambda__1___closed__8, align 8, !tbaa !4
  %41 = tail call ptr @l_Array_append___rarg(ptr noundef %40, ptr noundef %17) #5
  br i1 %.not27, label %42, label %lean_dec.exit19

42:                                               ; preds = %39
  %43 = load i32, ptr %17, align 4, !tbaa !8
  %44 = icmp sgt i32 %43, 1
  br i1 %44, label %45, label %47, !prof !11

45:                                               ; preds = %42
  %46 = add nsw i32 %43, -1
  store i32 %46, ptr %17, align 4, !tbaa !8
  br label %lean_dec.exit19

47:                                               ; preds = %42
  %.not.i23 = icmp eq i32 %43, 0
  br i1 %.not.i23, label %lean_dec.exit19, label %48

48:                                               ; preds = %47
  tail call void @lean_dec_ref_cold(ptr noundef nonnull %17) #5
  br label %lean_dec.exit19

lean_dec.exit19:                                  ; preds = %39, %45, %47, %48, %29, %35, %37, %38
  %.0 = phi ptr [ %31, %38 ], [ %31, %37 ], [ %31, %35 ], [ %31, %29 ], [ %41, %48 ], [ %41, %47 ], [ %41, %45 ], [ %41, %39 ]
  ret ptr %.0
}